ccopy_reg
_reconstructor
p0
(csklearn.naive_bayes
GaussianNB
p1
c__builtin__
object
p2
Ntp3
Rp4
(dp5
S'class_prior_'
p6
cnumpy.core.multiarray
_reconstruct
p7
(cnumpy
ndarray
p8
(I0
tp9
S'b'
p10
tp11
Rp12
(I1
(I2
tp13
cnumpy
dtype
p14
(S'f8'
p15
I0
I1
tp16
Rp17
(I3
S'<'
p18
NNNI-1
I-1
I0
tp19
bI00
S';\xb1\x13;\xb1\x13\xeb?\x14;\xb1\x13;\xb1\xc3?'
p20
tp21
bsS'priors'
p22
NsS'classes_'
p23
g7
(g8
(I0
tp24
g10
tp25
Rp26
(I1
(I2
tp27
g17
I00
S'\x00\x00\x00\x00\x00\x00\x00\x00\x00\x00\x00\x00\x00\x00\xf0?'
p28
tp29
bsS'theta_'
p30
g7
(g8
(I0
tp31
g10
tp32
Rp33
(I1
(I2
I1
tp34
g17
I00
S'\xb1\xf6\rko\x90\x0fA\x00\x00\x00\x00"\x1a\x16A'
p35
tp36
bsS'sigma_'
p37
g7
(g8
(I0
tp38
g10
tp39
Rp40
(I1
(I2
I1
tp41
g17
I00
S';\xcb\xb5\xac@\x95\xfcA\x0e\xd1\x15\xc8~\xfe/B'
p42
tp43
bsS'_sklearn_version'
p44
S'0.19.0'
p45
sS'class_count_'
p46
g7
(g8
(I0
tp47
g10
tp48
Rp49
(I1
(I2
tp50
g17
I00
S'\x00\x00\x00\x00\x00\x80K@\x00\x00\x00\x00\x00\x00$@'
p51
tp52
bsb.